; Function Attrs: mustprogress nofree norecurse nosync nounwind willreturn memory(read, inaccessiblemem: none) uwtable
define hidden noundef i32 @_ZNK20bit_blaster_rewriter14get_num_scopesEv(ptr nocapture noundef nonnull readonly align 8 dereferenceable(8) %this) local_unnamed_addr #6 align 2 {
entry:
  %0 = load ptr, ptr %this, align 8
  %m_keyval_lim.i.i = getelementptr inbounds i8, ptr %0, i64 800
  %1 = load ptr, ptr %m_keyval_lim.i.i, align 8
  %cmp.i.i.i = icmp eq ptr %1, null
  br i1 %cmp.i.i.i, label %_ZNK20bit_blaster_rewriter3imp14get_num_scopesEv.exit, label %if.end.i.i.i

if.end.i.i.i:                                     ; preds = %entry
  %arrayidx.i.i.i = getelementptr inbounds i8, ptr %1, i64 -4
  %2 = load i32, ptr %arrayidx.i.i.i, align 4
  br label %_ZNK20bit_blaster_rewriter3imp14get_num_scopesEv.exit

_ZNK20bit_blaster_rewriter3imp14get_num_scopesEv.exit: ; preds = %entry, %if.end.i.i.i
  %retval.0.i.i.i = phi i32 [ %2, %if.end.i.i.i ], [ 0, %entry ]
  ret i32 %retval.0.i.i.i
}